target datalayout = "e-m:e-p270:32:32-p271:32:32-p272:64:64-i64:64-i128:128-f80:128-n8:16:32:64-S128"
target triple = "x86_64-pc-linux-gnu"

%"class.pxrInternal_v0_24__pxrReserved__::TfToken" = type { %"class.pxrInternal_v0_24__pxrReserved__::TfPointerAndBits" }
%"class.pxrInternal_v0_24__pxrReserved__::TfPointerAndBits" = type { ptr }
%"class.std::shared_ptr.15" = type { %"class.std::__shared_ptr.16" }
%"class.std::__shared_ptr.16" = type { ptr, %"class.std::__shared_count" }
%"class.std::__shared_count" = type { ptr }
%"class.std::shared_ptr" = type { %"class.std::__shared_ptr" }
%"class.std::__shared_ptr" = type { ptr, %"class.std::__shared_count" }
%"struct.pxrInternal_v0_24__pxrReserved__::HdSceneIndexPrim" = type { %"class.pxrInternal_v0_24__pxrReserved__::TfToken", %"class.std::shared_ptr" }

; Function Attrs: mustprogress uwtable
define dso_local void @_Z22GetDataSourceFromSceneRN32pxrInternal_v0_24__pxrReserved__16HdSceneIndexBaseERKNS_7SdfPathERKNS_19HdDataSourceLocatorE(ptr dead_on_unwind noalias writable sret(%"class.std::shared_ptr.15") align 8 %0, ptr noundef nonnull align 8 dereferenceable(120) %1, ptr noundef nonnull align 4 dereferenceable(8) %2, ptr noundef nonnull align 8 dereferenceable(56) %3) #4 personality ptr @__gxx_personality_v0 {
  %5 = alloca ptr, align 8
  %6 = alloca ptr, align 8
  %7 = alloca ptr, align 8
  %8 = alloca ptr, align 8
  %9 = alloca %"struct.pxrInternal_v0_24__pxrReserved__::HdSceneIndexPrim", align 8
  %10 = alloca ptr, align 8
  %11 = alloca i32, align 4
  store ptr %0, ptr %5, align 8
  store ptr %1, ptr %6, align 8
  store ptr %2, ptr %7, align 8
  store ptr %3, ptr %8, align 8
  %12 = load ptr, ptr %6, align 8
  %13 = load ptr, ptr %7, align 8
  %14 = load ptr, ptr %12, align 8
  %15 = getelementptr inbounds ptr, ptr %14, i64 2
  %16 = load ptr, ptr %15, align 8
  call void %16(ptr dead_on_unwind writable sret(%"struct.pxrInternal_v0_24__pxrReserved__::HdSceneIndexPrim") align 8 %9, ptr noundef nonnull align 8 dereferenceable(120) %12, ptr noundef nonnull align 4 dereferenceable(8) %13)
  %17 = getelementptr inbounds nuw %"struct.pxrInternal_v0_24__pxrReserved__::HdSceneIndexPrim", ptr %9, i32 0, i32 1
  %18 = load ptr, ptr %8, align 8
  invoke void @_ZN32pxrInternal_v0_24__pxrReserved__21HdContainerDataSource3GetERKSt10shared_ptrIS0_ERKNS_19HdDataSourceLocatorE(ptr dead_on_unwind writable sret(%"class.std::shared_ptr.15") align 8 %0, ptr noundef nonnull align 8 dereferenceable(16) %17, ptr noundef nonnull align 8 dereferenceable(56) %18)
          to label %19 unwind label %20

19:                                               ; preds = %4
  call void @_ZN32pxrInternal_v0_24__pxrReserved__16HdSceneIndexPrimD2Ev(ptr noundef nonnull align 8 dereferenceable(24) %9) #3
  ret void

20:                                               ; preds = %4
  %21 = landingpad { ptr, i32 }
          cleanup
  %22 = extractvalue { ptr, i32 } %21, 0
  store ptr %22, ptr %10, align 8
  %23 = extractvalue { ptr, i32 } %21, 1
  store i32 %23, ptr %11, align 4
  call void @_ZN32pxrInternal_v0_24__pxrReserved__16HdSceneIndexPrimD2Ev(ptr noundef nonnull align 8 dereferenceable(24) %9) #3
  br label %24

24:                                               ; preds = %20
  %25 = load ptr, ptr %10, align 8
  %26 = load i32, ptr %11, align 4
  %27 = insertvalue { ptr, i32 } poison, ptr %25, 0
  %28 = insertvalue { ptr, i32 } %27, i32 %26, 1
  resume { ptr, i32 } %28
}