; Function Attrs: mustprogress uwtable
define dso_local void @_Z22GetDataSourceFromSceneRN32pxrInternal_v0_24__pxrReserved__16HdSceneIndexBaseERKNS_7SdfPathERKNS_19HdDataSourceLocatorE(ptr dead_on_unwind noalias writable sret(%"class.std::shared_ptr.15") align 8 %0, ptr noundef nonnull align 8 dereferenceable(120) %1, ptr noundef nonnull align 4 dereferenceable(8) %2, ptr noundef nonnull align 8 dereferenceable(56) %3) local_unnamed_addr #3 personality ptr @__gxx_personality_v0 {
  %5 = alloca %"struct.pxrInternal_v0_24__pxrReserved__::HdSceneIndexPrim", align 8
  %6 = load ptr, ptr %1, align 8
  %7 = getelementptr inbounds nuw i8, ptr %6, i64 16
  %8 = load ptr, ptr %7, align 8
  call void %8(ptr dead_on_unwind nonnull writable sret(%"struct.pxrInternal_v0_24__pxrReserved__::HdSceneIndexPrim") align 8 %5, ptr noundef nonnull align 8 dereferenceable(120) %1, ptr noundef nonnull align 4 dereferenceable(8) %2)
  %9 = getelementptr inbounds nuw i8, ptr %5, i64 8
  invoke void @_ZN32pxrInternal_v0_24__pxrReserved__21HdContainerDataSource3GetERKSt10shared_ptrIS0_ERKNS_19HdDataSourceLocatorE(ptr dead_on_unwind writable sret(%"class.std::shared_ptr.15") align 8 %0, ptr noundef nonnull align 8 dereferenceable(16) %9, ptr noundef nonnull align 8 dereferenceable(56) %3)
          to label %10 unwind label %54

10:                                               ; preds = %4
  %11 = getelementptr inbounds nuw i8, ptr %5, i64 16
  %12 = load ptr, ptr %11, align 8
  %.not.i.i.i.i = icmp eq ptr %12, null
  br i1 %.not.i.i.i.i, label %_ZNSt10shared_ptrIN32pxrInternal_v0_24__pxrReserved__21HdContainerDataSourceEED2Ev.exit.i, label %13

13:                                               ; preds = %10
  %14 = getelementptr inbounds nuw i8, ptr %12, i64 8
  %15 = load atomic i64, ptr %14 acquire, align 8
  %16 = icmp eq i64 %15, 4294967297
  %17 = trunc i64 %15 to i32
  br i1 %16, label %18, label %23

18:                                               ; preds = %13
  store i32 0, ptr %14, align 8
  %19 = getelementptr inbounds nuw i8, ptr %12, i64 12
  store i32 0, ptr %19, align 4
  %20 = load ptr, ptr %12, align 8
  %21 = getelementptr inbounds nuw i8, ptr %20, i64 16
  %22 = load ptr, ptr %21, align 8
  call void %22(ptr noundef nonnull align 8 dereferenceable(16) %12) #23
  br label %_ZNSt16_Sp_counted_baseILN9__gnu_cxx12_Lock_policyE2EE24_M_release_last_use_coldEv.exit.sink.split.i.i.i.i.i

23:                                               ; preds = %13
  %24 = load i8, ptr @__libc_single_threaded, align 1
  %.not.i.i.i.i.i = icmp eq i8 %24, 0
  br i1 %.not.i.i.i.i.i, label %27, label %25

25:                                               ; preds = %23
  %26 = add nsw i32 %17, -1
  store i32 %26, ptr %14, align 4
  br label %29

27:                                               ; preds = %23
  %28 = atomicrmw volatile add ptr %14, i32 -1 acq_rel, align 4
  br label %29

29:                                               ; preds = %27, %25
  %.0.i.i.i.i.i = phi i32 [ %17, %25 ], [ %28, %27 ]
  %30 = icmp eq i32 %.0.i.i.i.i.i, 1
  br i1 %30, label %31, label %_ZNSt10shared_ptrIN32pxrInternal_v0_24__pxrReserved__21HdContainerDataSourceEED2Ev.exit.i

31:                                               ; preds = %29
  %32 = load ptr, ptr %12, align 8
  %33 = getelementptr inbounds nuw i8, ptr %32, i64 16
  %34 = load ptr, ptr %33, align 8
  call void %34(ptr noundef nonnull align 8 dereferenceable(16) %12) #23
  %35 = getelementptr inbounds nuw i8, ptr %12, i64 12
  %36 = load i8, ptr @__libc_single_threaded, align 1
  %.not.i.i.i.i.i.i.i = icmp eq i8 %36, 0
  br i1 %.not.i.i.i.i.i.i.i, label %40, label %37

37:                                               ; preds = %31
  %38 = load i32, ptr %35, align 4
  %39 = add nsw i32 %38, -1
  store i32 %39, ptr %35, align 4
  br label %42

40:                                               ; preds = %31
  %41 = atomicrmw volatile add ptr %35, i32 -1 acq_rel, align 4
  br label %42

42:                                               ; preds = %40, %37
  %.0.i.i.i.i.i.i.i = phi i32 [ %38, %37 ], [ %41, %40 ]
  %43 = icmp eq i32 %.0.i.i.i.i.i.i.i, 1
  br i1 %43, label %_ZNSt16_Sp_counted_baseILN9__gnu_cxx12_Lock_policyE2EE24_M_release_last_use_coldEv.exit.sink.split.i.i.i.i.i, label %_ZNSt10shared_ptrIN32pxrInternal_v0_24__pxrReserved__21HdContainerDataSourceEED2Ev.exit.i

_ZNSt16_Sp_counted_baseILN9__gnu_cxx12_Lock_policyE2EE24_M_release_last_use_coldEv.exit.sink.split.i.i.i.i.i: ; preds = %42, %18
  %44 = load ptr, ptr %12, align 8
  %45 = getelementptr inbounds nuw i8, ptr %44, i64 24
  %46 = load ptr, ptr %45, align 8
  call void %46(ptr noundef nonnull align 8 dereferenceable(16) %12) #23
  br label %_ZNSt10shared_ptrIN32pxrInternal_v0_24__pxrReserved__21HdContainerDataSourceEED2Ev.exit.i

_ZNSt10shared_ptrIN32pxrInternal_v0_24__pxrReserved__21HdContainerDataSourceEED2Ev.exit.i: ; preds = %_ZNSt16_Sp_counted_baseILN9__gnu_cxx12_Lock_policyE2EE24_M_release_last_use_coldEv.exit.sink.split.i.i.i.i.i, %42, %29, %10
  %47 = load ptr, ptr %5, align 8
  %48 = ptrtoint ptr %47 to i64
  %49 = and i64 %48, 7
  %.not.i.i.i = icmp eq i64 %49, 0
  br i1 %.not.i.i.i, label %_ZN32pxrInternal_v0_24__pxrReserved__16HdSceneIndexPrimD2Ev.exit, label %50

50:                                               ; preds = %_ZNSt10shared_ptrIN32pxrInternal_v0_24__pxrReserved__21HdContainerDataSourceEED2Ev.exit.i
  %51 = and i64 %48, -8
  %52 = inttoptr i64 %51 to ptr
  %53 = atomicrmw sub ptr %52, i32 2 release, align 4
  br label %_ZN32pxrInternal_v0_24__pxrReserved__16HdSceneIndexPrimD2Ev.exit

_ZN32pxrInternal_v0_24__pxrReserved__16HdSceneIndexPrimD2Ev.exit: ; preds = %_ZNSt10shared_ptrIN32pxrInternal_v0_24__pxrReserved__21HdContainerDataSourceEED2Ev.exit.i, %50
  ret void

54:                                               ; preds = %4
  %55 = landingpad { ptr, i32 }
          cleanup
  call void @_ZN32pxrInternal_v0_24__pxrReserved__16HdSceneIndexPrimD2Ev(ptr noundef nonnull align 8 dereferenceable(24) %5) #23
  resume { ptr, i32 } %55
}